; Function Attrs: mustprogress nofree norecurse nosync nounwind willreturn memory(read, inaccessiblemem: none) uwtable
define hidden noundef ptr @_ZN10ClipperLib15GetMaximaPairExEPNS_5TEdgeE(ptr nocapture noundef readonly %e) local_unnamed_addr #1 {
entry:
  %Next.i = getelementptr inbounds i8, ptr %e, i64 80
  %0 = load ptr, ptr %Next.i, align 8
  %Top.i = getelementptr inbounds i8, ptr %0, i64 32
  %Top1.i = getelementptr inbounds i8, ptr %e, i64 32
  %1 = load i64, ptr %Top.i, align 8
  %2 = load i64, ptr %Top1.i, align 8
  %cmp.i.i = icmp eq i64 %1, %2
  %Y.i.i = getelementptr inbounds i8, ptr %0, i64 40
  %3 = load i64, ptr %Y.i.i, align 8
  %Y2.i.i = getelementptr inbounds i8, ptr %e, i64 40
  %4 = load i64, ptr %Y2.i.i, align 8
  %cmp3.i.i = icmp eq i64 %3, %4
  %5 = select i1 %cmp.i.i, i1 %cmp3.i.i, i1 false
  br i1 %5, label %land.lhs.true.i, label %if.else.i

land.lhs.true.i:                                  ; preds = %entry
  %NextInLML.i = getelementptr inbounds i8, ptr %0, i64 96
  %6 = load ptr, ptr %NextInLML.i, align 8
  %tobool.not.i = icmp eq ptr %6, null
  br i1 %tobool.not.i, label %land.lhs.true, label %if.else.i

if.else.i:                                        ; preds = %land.lhs.true.i, %entry
  %Prev.i = getelementptr inbounds i8, ptr %e, i64 88
  %7 = load ptr, ptr %Prev.i, align 8
  %Top4.i = getelementptr inbounds i8, ptr %7, i64 32
  %8 = load i64, ptr %Top4.i, align 8
  %cmp.i8.i = icmp eq i64 %8, %2
  %Y.i9.i = getelementptr inbounds i8, ptr %7, i64 40
  %9 = load i64, ptr %Y.i9.i, align 8
  %cmp3.i11.i = icmp eq i64 %9, %4
  %10 = select i1 %cmp.i8.i, i1 %cmp3.i11.i, i1 false
  br i1 %10, label %land.lhs.true7.i, label %return

land.lhs.true7.i:                                 ; preds = %if.else.i
  %NextInLML9.i = getelementptr inbounds i8, ptr %7, i64 96
  %11 = load ptr, ptr %NextInLML9.i, align 8
  %tobool10.not.i = icmp eq ptr %11, null
  br i1 %tobool10.not.i, label %land.lhs.true, label %return

land.lhs.true:                                    ; preds = %land.lhs.true.i, %land.lhs.true7.i
  %retval.0.i.ph = phi ptr [ %7, %land.lhs.true7.i ], [ %0, %land.lhs.true.i ]
  %OutIdx = getelementptr inbounds i8, ptr %retval.0.i.ph, i64 76
  %12 = load i32, ptr %OutIdx, align 4
  %cmp = icmp eq i32 %12, -2
  br i1 %cmp, label %return, label %lor.lhs.false

lor.lhs.false:                                    ; preds = %land.lhs.true
  %NextInAEL = getelementptr inbounds i8, ptr %retval.0.i.ph, i64 104
  %13 = load ptr, ptr %NextInAEL, align 8
  %PrevInAEL = getelementptr inbounds i8, ptr %retval.0.i.ph, i64 112
  %14 = load ptr, ptr %PrevInAEL, align 8
  %cmp1 = icmp eq ptr %13, %14
  br i1 %cmp1, label %land.lhs.true2, label %return

land.lhs.true2:                                   ; preds = %lor.lhs.false
  %Dx.i = getelementptr inbounds i8, ptr %retval.0.i.ph, i64 48
  %15 = load double, ptr %Dx.i, align 8
  %cmp.i = fcmp oeq double %15, -1.000000e+40
  br i1 %cmp.i, label %if.end, label %return

if.end:                                           ; preds = %land.lhs.true2
  br label %return

return:                                           ; preds = %lor.lhs.false, %if.else.i, %land.lhs.true7.i, %land.lhs.true, %land.lhs.true2, %if.end
  %retval.0 = phi ptr [ null, %land.lhs.true2 ], [ null, %land.lhs.true ], [ %retval.0.i.ph, %lor.lhs.false ], [ null, %if.else.i ], [ null, %land.lhs.true7.i ], [ %retval.0.i.ph, %if.end ]
  ret ptr %retval.0
}